target datalayout = "e-m:e-p270:32:32-p271:32:32-p272:64:64-i64:64-i128:128-f80:128-n8:16:32:64-S128"
target triple = "x86_64-pc-linux-gnu"

%struct.asn1_type_st = type { i32, %union.anon }
%union.anon = type { ptr }
%struct.asn1_string_st = type { i32, i32, ptr, i64 }

@.str.48 = private unnamed_addr constant [1 x i8] zeroinitializer, align 1
@.str.161 = private unnamed_addr constant [25 x i8] c"../openssl/apps/pkcs12.c\00", align 1
@.str.178 = private unnamed_addr constant [2 x i8] c"\0A\00", align 1
@.str.179 = private unnamed_addr constant [4 x i8] c"%s\0A\00", align 1
@.str.180 = private unnamed_addr constant [6 x i8] c"%.*s\0A\00", align 1
@.str.181 = private unnamed_addr constant [8 x i8] c"%s (%s)\00", align 1
@.str.182 = private unnamed_addr constant [22 x i8] c"<Unsupported tag %d>\0A\00", align 1
@.str.189 = private unnamed_addr constant [6 x i8] c"%02X \00", align 1

; Function Attrs: nounwind uwtable
define dso_local void @hex_prin(ptr noundef %0, ptr noundef %1, i32 noundef %2) #0 {
  %4 = alloca ptr, align 8
  %5 = alloca ptr, align 8
  %6 = alloca i32, align 4
  %7 = alloca i32, align 4
  store ptr %0, ptr %4, align 8, !tbaa !15
  store ptr %1, ptr %5, align 8, !tbaa !11
  store i32 %2, ptr %6, align 4, !tbaa !4
  call void @llvm.lifetime.start.p0(i64 4, ptr %7) #6
  store i32 0, ptr %7, align 4, !tbaa !4
  br label %8

8:                                                ; preds = %21, %3
  %9 = load i32, ptr %7, align 4, !tbaa !4
  %10 = load i32, ptr %6, align 4, !tbaa !4
  %11 = icmp slt i32 %9, %10
  br i1 %11, label %12, label %24

12:                                               ; preds = %8
  %13 = load ptr, ptr %4, align 8, !tbaa !15
  %14 = load ptr, ptr %5, align 8, !tbaa !11
  %15 = load i32, ptr %7, align 4, !tbaa !4
  %16 = sext i32 %15 to i64
  %17 = getelementptr inbounds i8, ptr %14, i64 %16
  %18 = load i8, ptr %17, align 1, !tbaa !49
  %19 = zext i8 %18 to i32
  %20 = call i32 (ptr, ptr, ...) @BIO_printf(ptr noundef %13, ptr noundef @.str.189, i32 noundef %19)
  br label %21

21:                                               ; preds = %12
  %22 = load i32, ptr %7, align 4, !tbaa !4
  %23 = add nsw i32 %22, 1
  store i32 %23, ptr %7, align 4, !tbaa !4
  br label %8, !llvm.loop !116

24:                                               ; preds = %8
  call void @llvm.lifetime.end.p0(i64 4, ptr %7) #6
  ret void
}

; Function Attrs: nounwind uwtable
define dso_local void @print_attribute(ptr noundef %0, ptr noundef %1) #0 {
  %3 = alloca ptr, align 8
  %4 = alloca ptr, align 8
  %5 = alloca ptr, align 8
  %6 = alloca ptr, align 8
  %7 = alloca [80 x i8], align 16
  store ptr %0, ptr %3, align 8, !tbaa !15
  store ptr %1, ptr %4, align 8, !tbaa !107
  call void @llvm.lifetime.start.p0(i64 8, ptr %5) #6
  call void @llvm.lifetime.start.p0(i64 8, ptr %6) #6
  call void @llvm.lifetime.start.p0(i64 80, ptr %7) #6
  %8 = load ptr, ptr %4, align 8, !tbaa !107
  %9 = getelementptr inbounds nuw %struct.asn1_type_st, ptr %8, i32 0, i32 0
  %10 = load i32, ptr %9, align 8, !tbaa !110
  switch i32 %10, label %89 [
    i32 30, label %11
    i32 12, label %27
    i32 4, label %40
    i32 3, label %54
    i32 6, label %68
  ]

11:                                               ; preds = %2
  %12 = load ptr, ptr %4, align 8, !tbaa !107
  %13 = getelementptr inbounds nuw %struct.asn1_type_st, ptr %12, i32 0, i32 1
  %14 = load ptr, ptr %13, align 8, !tbaa !49
  %15 = getelementptr inbounds nuw %struct.asn1_string_st, ptr %14, i32 0, i32 2
  %16 = load ptr, ptr %15, align 8, !tbaa !112
  %17 = load ptr, ptr %4, align 8, !tbaa !107
  %18 = getelementptr inbounds nuw %struct.asn1_type_st, ptr %17, i32 0, i32 1
  %19 = load ptr, ptr %18, align 8, !tbaa !49
  %20 = getelementptr inbounds nuw %struct.asn1_string_st, ptr %19, i32 0, i32 0
  %21 = load i32, ptr %20, align 8, !tbaa !114
  %22 = call ptr @OPENSSL_uni2asc(ptr noundef %16, i32 noundef %21)
  store ptr %22, ptr %5, align 8, !tbaa !11
  %23 = load ptr, ptr %3, align 8, !tbaa !15
  %24 = load ptr, ptr %5, align 8, !tbaa !11
  %25 = call i32 (ptr, ptr, ...) @BIO_printf(ptr noundef %23, ptr noundef @.str.179, ptr noundef %24)
  %26 = load ptr, ptr %5, align 8, !tbaa !11
  call void @CRYPTO_free(ptr noundef %26, ptr noundef @.str.161, i32 noundef 1254)
  br label %95

27:                                               ; preds = %2
  %28 = load ptr, ptr %3, align 8, !tbaa !15
  %29 = load ptr, ptr %4, align 8, !tbaa !107
  %30 = getelementptr inbounds nuw %struct.asn1_type_st, ptr %29, i32 0, i32 1
  %31 = load ptr, ptr %30, align 8, !tbaa !49
  %32 = getelementptr inbounds nuw %struct.asn1_string_st, ptr %31, i32 0, i32 0
  %33 = load i32, ptr %32, align 8, !tbaa !114
  %34 = load ptr, ptr %4, align 8, !tbaa !107
  %35 = getelementptr inbounds nuw %struct.asn1_type_st, ptr %34, i32 0, i32 1
  %36 = load ptr, ptr %35, align 8, !tbaa !49
  %37 = getelementptr inbounds nuw %struct.asn1_string_st, ptr %36, i32 0, i32 2
  %38 = load ptr, ptr %37, align 8, !tbaa !112
  %39 = call i32 (ptr, ptr, ...) @BIO_printf(ptr noundef %28, ptr noundef @.str.180, i32 noundef %33, ptr noundef %38)
  br label %95

40:                                               ; preds = %2
  %41 = load ptr, ptr %3, align 8, !tbaa !15
  %42 = load ptr, ptr %4, align 8, !tbaa !107
  %43 = getelementptr inbounds nuw %struct.asn1_type_st, ptr %42, i32 0, i32 1
  %44 = load ptr, ptr %43, align 8, !tbaa !49
  %45 = getelementptr inbounds nuw %struct.asn1_string_st, ptr %44, i32 0, i32 2
  %46 = load ptr, ptr %45, align 8, !tbaa !112
  %47 = load ptr, ptr %4, align 8, !tbaa !107
  %48 = getelementptr inbounds nuw %struct.asn1_type_st, ptr %47, i32 0, i32 1
  %49 = load ptr, ptr %48, align 8, !tbaa !49
  %50 = getelementptr inbounds nuw %struct.asn1_string_st, ptr %49, i32 0, i32 0
  %51 = load i32, ptr %50, align 8, !tbaa !114
  call void @hex_prin(ptr noundef %41, ptr noundef %46, i32 noundef %51)
  %52 = load ptr, ptr %3, align 8, !tbaa !15
  %53 = call i32 (ptr, ptr, ...) @BIO_printf(ptr noundef %52, ptr noundef @.str.178)
  br label %95

54:                                               ; preds = %2
  %55 = load ptr, ptr %3, align 8, !tbaa !15
  %56 = load ptr, ptr %4, align 8, !tbaa !107
  %57 = getelementptr inbounds nuw %struct.asn1_type_st, ptr %56, i32 0, i32 1
  %58 = load ptr, ptr %57, align 8, !tbaa !49
  %59 = getelementptr inbounds nuw %struct.asn1_string_st, ptr %58, i32 0, i32 2
  %60 = load ptr, ptr %59, align 8, !tbaa !112
  %61 = load ptr, ptr %4, align 8, !tbaa !107
  %62 = getelementptr inbounds nuw %struct.asn1_type_st, ptr %61, i32 0, i32 1
  %63 = load ptr, ptr %62, align 8, !tbaa !49
  %64 = getelementptr inbounds nuw %struct.asn1_string_st, ptr %63, i32 0, i32 0
  %65 = load i32, ptr %64, align 8, !tbaa !114
  call void @hex_prin(ptr noundef %55, ptr noundef %60, i32 noundef %65)
  %66 = load ptr, ptr %3, align 8, !tbaa !15
  %67 = call i32 (ptr, ptr, ...) @BIO_printf(ptr noundef %66, ptr noundef @.str.178)
  br label %95

68:                                               ; preds = %2
  %69 = load ptr, ptr %4, align 8, !tbaa !107
  %70 = getelementptr inbounds nuw %struct.asn1_type_st, ptr %69, i32 0, i32 1
  %71 = load ptr, ptr %70, align 8, !tbaa !49
  %72 = call i32 @OBJ_obj2nid(ptr noundef %71)
  %73 = call ptr @OBJ_nid2ln(i32 noundef %72)
  store ptr %73, ptr %6, align 8, !tbaa !11
  %74 = load ptr, ptr %6, align 8, !tbaa !11
  %75 = icmp ne ptr %74, null
  br i1 %75, label %77, label %76

76:                                               ; preds = %68
  store ptr @.str.48, ptr %6, align 8, !tbaa !11
  br label %77

77:                                               ; preds = %76, %68
  %78 = getelementptr inbounds [80 x i8], ptr %7, i64 0, i64 0
  %79 = load ptr, ptr %4, align 8, !tbaa !107
  %80 = getelementptr inbounds nuw %struct.asn1_type_st, ptr %79, i32 0, i32 1
  %81 = load ptr, ptr %80, align 8, !tbaa !49
  %82 = call i32 @OBJ_obj2txt(ptr noundef %78, i32 noundef 80, ptr noundef %81, i32 noundef 1)
  %83 = load ptr, ptr %3, align 8, !tbaa !15
  %84 = load ptr, ptr %6, align 8, !tbaa !11
  %85 = getelementptr inbounds [80 x i8], ptr %7, i64 0, i64 0
  %86 = call i32 (ptr, ptr, ...) @BIO_printf(ptr noundef %83, ptr noundef @.str.181, ptr noundef %84, ptr noundef %85)
  %87 = load ptr, ptr %3, align 8, !tbaa !15
  %88 = call i32 (ptr, ptr, ...) @BIO_printf(ptr noundef %87, ptr noundef @.str.178)
  br label %95

89:                                               ; preds = %2
  %90 = load ptr, ptr %3, align 8, !tbaa !15
  %91 = load ptr, ptr %4, align 8, !tbaa !107
  %92 = getelementptr inbounds nuw %struct.asn1_type_st, ptr %91, i32 0, i32 0
  %93 = load i32, ptr %92, align 8, !tbaa !110
  %94 = call i32 (ptr, ptr, ...) @BIO_printf(ptr noundef %90, ptr noundef @.str.182, i32 noundef %93)
  br label %95

95:                                               ; preds = %89, %77, %54, %40, %27, %11
  call void @llvm.lifetime.end.p0(i64 80, ptr %7) #6
  call void @llvm.lifetime.end.p0(i64 8, ptr %6) #6
  call void @llvm.lifetime.end.p0(i64 8, ptr %5) #6
  ret void
}