; Function Attrs: nounwind uwtable
define dso_local void @print_attribute(ptr noundef %0, ptr noundef readonly captures(none) %1) local_unnamed_addr #0 {
  %3 = alloca [80 x i8], align 16
  call void @llvm.lifetime.start.p0(i64 80, ptr nonnull %3) #6
  %4 = load i32, ptr %1, align 8, !tbaa !66
  switch i32 %4, label %53 [
    i32 30, label %5
    i32 12, label %13
    i32 4, label %20
    i32 3, label %32
    i32 6, label %44
  ]

5:                                                ; preds = %2
  %6 = getelementptr inbounds nuw i8, ptr %1, i64 8
  %7 = load ptr, ptr %6, align 8, !tbaa !33
  %8 = getelementptr inbounds nuw i8, ptr %7, i64 8
  %9 = load ptr, ptr %8, align 8, !tbaa !68
  %10 = load i32, ptr %7, align 8, !tbaa !70
  %11 = tail call ptr @OPENSSL_uni2asc(ptr noundef %9, i32 noundef %10) #6
  %12 = tail call i32 (ptr, ptr, ...) @BIO_printf(ptr noundef %0, ptr noundef nonnull @.str.179, ptr noundef %11) #6
  tail call void @CRYPTO_free(ptr noundef %11, ptr noundef nonnull @.str.161, i32 noundef 1254) #6
  br label %55

13:                                               ; preds = %2
  %14 = getelementptr inbounds nuw i8, ptr %1, i64 8
  %15 = load ptr, ptr %14, align 8, !tbaa !33
  %16 = load i32, ptr %15, align 8, !tbaa !70
  %17 = getelementptr inbounds nuw i8, ptr %15, i64 8
  %18 = load ptr, ptr %17, align 8, !tbaa !68
  %19 = tail call i32 (ptr, ptr, ...) @BIO_printf(ptr noundef %0, ptr noundef nonnull @.str.180, i32 noundef %16, ptr noundef %18) #6
  br label %55

20:                                               ; preds = %2
  %21 = getelementptr inbounds nuw i8, ptr %1, i64 8
  %22 = load ptr, ptr %21, align 8, !tbaa !33
  %23 = getelementptr inbounds nuw i8, ptr %22, i64 8
  %24 = load ptr, ptr %23, align 8, !tbaa !68
  %25 = load i32, ptr %22, align 8, !tbaa !70
  %26 = icmp sgt i32 %25, 0
  br i1 %26, label %.lr.ph.preheader.i, label %hex_prin.exit

.lr.ph.preheader.i:                               ; preds = %20
  %wide.trip.count.i = zext nneg i32 %25 to i64
  br label %.lr.ph.i

.lr.ph.i:                                         ; preds = %.lr.ph.i, %.lr.ph.preheader.i
  %indvars.iv.i = phi i64 [ 0, %.lr.ph.preheader.i ], [ %indvars.iv.next.i, %.lr.ph.i ]
  %27 = getelementptr inbounds nuw i8, ptr %24, i64 %indvars.iv.i
  %28 = load i8, ptr %27, align 1, !tbaa !33
  %29 = zext i8 %28 to i32
  %30 = tail call i32 (ptr, ptr, ...) @BIO_printf(ptr noundef %0, ptr noundef nonnull @.str.189, i32 noundef %29) #6
  %indvars.iv.next.i = add nuw nsw i64 %indvars.iv.i, 1
  %exitcond.not.i = icmp eq i64 %indvars.iv.next.i, %wide.trip.count.i
  br i1 %exitcond.not.i, label %hex_prin.exit, label %.lr.ph.i, !llvm.loop !71

hex_prin.exit:                                    ; preds = %.lr.ph.i, %20
  %31 = tail call i32 (ptr, ptr, ...) @BIO_printf(ptr noundef %0, ptr noundef nonnull @.str.178) #6
  br label %55

32:                                               ; preds = %2
  %33 = getelementptr inbounds nuw i8, ptr %1, i64 8
  %34 = load ptr, ptr %33, align 8, !tbaa !33
  %35 = getelementptr inbounds nuw i8, ptr %34, i64 8
  %36 = load ptr, ptr %35, align 8, !tbaa !68
  %37 = load i32, ptr %34, align 8, !tbaa !70
  %38 = icmp sgt i32 %37, 0
  br i1 %38, label %.lr.ph.preheader.i25, label %hex_prin.exit31

.lr.ph.preheader.i25:                             ; preds = %32
  %wide.trip.count.i26 = zext nneg i32 %37 to i64
  br label %.lr.ph.i27

.lr.ph.i27:                                       ; preds = %.lr.ph.i27, %.lr.ph.preheader.i25
  %indvars.iv.i28 = phi i64 [ 0, %.lr.ph.preheader.i25 ], [ %indvars.iv.next.i29, %.lr.ph.i27 ]
  %39 = getelementptr inbounds nuw i8, ptr %36, i64 %indvars.iv.i28
  %40 = load i8, ptr %39, align 1, !tbaa !33
  %41 = zext i8 %40 to i32
  %42 = tail call i32 (ptr, ptr, ...) @BIO_printf(ptr noundef %0, ptr noundef nonnull @.str.189, i32 noundef %41) #6
  %indvars.iv.next.i29 = add nuw nsw i64 %indvars.iv.i28, 1
  %exitcond.not.i30 = icmp eq i64 %indvars.iv.next.i29, %wide.trip.count.i26
  br i1 %exitcond.not.i30, label %hex_prin.exit31, label %.lr.ph.i27, !llvm.loop !71

hex_prin.exit31:                                  ; preds = %.lr.ph.i27, %32
  %43 = tail call i32 (ptr, ptr, ...) @BIO_printf(ptr noundef %0, ptr noundef nonnull @.str.178) #6
  br label %55

44:                                               ; preds = %2
  %45 = getelementptr inbounds nuw i8, ptr %1, i64 8
  %46 = load ptr, ptr %45, align 8, !tbaa !33
  %47 = tail call i32 @OBJ_obj2nid(ptr noundef %46) #6
  %48 = tail call ptr @OBJ_nid2ln(i32 noundef %47) #6
  %.not = icmp eq ptr %48, null
  %spec.store.select = select i1 %.not, ptr @.str.48, ptr %48
  %49 = load ptr, ptr %45, align 8, !tbaa !33
  %50 = call i32 @OBJ_obj2txt(ptr noundef nonnull %3, i32 noundef 80, ptr noundef %49, i32 noundef 1) #6
  %51 = call i32 (ptr, ptr, ...) @BIO_printf(ptr noundef %0, ptr noundef nonnull @.str.181, ptr noundef nonnull %spec.store.select, ptr noundef nonnull %3) #6
  %52 = call i32 (ptr, ptr, ...) @BIO_printf(ptr noundef %0, ptr noundef nonnull @.str.178) #6
  br label %55

53:                                               ; preds = %2
  %54 = tail call i32 (ptr, ptr, ...) @BIO_printf(ptr noundef %0, ptr noundef nonnull @.str.182, i32 noundef %4) #6
  br label %55

55:                                               ; preds = %53, %44, %hex_prin.exit31, %hex_prin.exit, %13, %5
  call void @llvm.lifetime.end.p0(i64 80, ptr nonnull %3) #6
  ret void
}